target datalayout = "e-m:e-p270:32:32-p271:32:32-p272:64:64-i64:64-i128:128-f80:128-n8:16:32:64-S128"
target triple = "x86_64-pc-linux-gnu"

%struct.ident_t = type { i32, i32, i32, i32, ptr }

@1 = private unnamed_addr constant %struct.ident_t { i32 0, i32 514, i32 0, i32 22, ptr @0 }, align 8

; Function Attrs: norecurse nounwind uwtable
define internal void @_ZN5faiss14pairwise_L2sqrEllPKflS1_Pflll.omp_outlined(ptr noalias noundef %0, ptr noalias noundef %1, ptr noundef nonnull align 8 dereferenceable(8) %2, ptr noundef nonnull align 8 dereferenceable(8) %3, ptr noundef nonnull align 8 dereferenceable(8) %4, ptr noundef nonnull align 8 dereferenceable(8) %5, ptr noundef nonnull align 8 dereferenceable(8) %6) #1 personality ptr @__gxx_personality_v0 {
  %8 = alloca ptr, align 8
  %9 = alloca ptr, align 8
  %10 = alloca ptr, align 8
  %11 = alloca ptr, align 8
  %12 = alloca ptr, align 8
  %13 = alloca ptr, align 8
  %14 = alloca ptr, align 8
  %15 = alloca i64, align 8
  %16 = alloca i64, align 8
  %17 = alloca i64, align 8
  %18 = alloca i64, align 8
  %19 = alloca i64, align 8
  %20 = alloca i64, align 8
  %21 = alloca i64, align 8
  %22 = alloca i32, align 4
  %23 = alloca i64, align 8
  store ptr %0, ptr %8, align 8
  store ptr %1, ptr %9, align 8
  store ptr %2, ptr %10, align 8
  store ptr %3, ptr %11, align 8
  store ptr %4, ptr %12, align 8
  store ptr %5, ptr %13, align 8
  store ptr %6, ptr %14, align 8
  %24 = load ptr, ptr %10, align 8
  %25 = load ptr, ptr %11, align 8
  %26 = load ptr, ptr %12, align 8
  %27 = load ptr, ptr %13, align 8
  %28 = load ptr, ptr %14, align 8
  %29 = load i64, ptr %24, align 8
  store i64 %29, ptr %16, align 8
  %30 = load i64, ptr %16, align 8
  %31 = sub nsw i64 %30, 0
  %32 = sdiv i64 %31, 1
  %33 = sub nsw i64 %32, 1
  store i64 %33, ptr %17, align 8
  store i64 0, ptr %18, align 8
  %34 = load i64, ptr %16, align 8
  %35 = icmp slt i64 0, %34
  br i1 %35, label %36, label %77

36:                                               ; preds = %7
  store i64 0, ptr %19, align 8
  %37 = load i64, ptr %17, align 8
  store i64 %37, ptr %20, align 8
  store i64 1, ptr %21, align 8
  store i32 0, ptr %22, align 4
  %38 = load ptr, ptr %8, align 8
  %39 = load i32, ptr %38, align 4
  call void @__kmpc_for_static_init_8(ptr @1, i32 %39, i32 34, ptr %22, ptr %19, ptr %20, ptr %21, i64 1, i64 1)
  %40 = load i64, ptr %20, align 8
  %41 = load i64, ptr %17, align 8
  %42 = icmp sgt i64 %40, %41
  br i1 %42, label %43, label %45

43:                                               ; preds = %36
  %44 = load i64, ptr %17, align 8
  br label %47

45:                                               ; preds = %36
  %46 = load i64, ptr %20, align 8
  br label %47

47:                                               ; preds = %45, %43
  %48 = phi i64 [ %44, %43 ], [ %46, %45 ]
  store i64 %48, ptr %20, align 8
  %49 = load i64, ptr %19, align 8
  store i64 %49, ptr %15, align 8
  br label %50

50:                                               ; preds = %70, %47
  %51 = load i64, ptr %15, align 8
  %52 = load i64, ptr %20, align 8
  %53 = icmp sle i64 %51, %52
  br i1 %53, label %54, label %73

54:                                               ; preds = %50
  %55 = load i64, ptr %15, align 8
  %56 = mul nsw i64 %55, 1
  %57 = add nsw i64 0, %56
  store i64 %57, ptr %23, align 8
  %58 = load ptr, ptr %26, align 8
  %59 = load i64, ptr %23, align 8
  %60 = load i64, ptr %27, align 8
  %61 = mul nsw i64 %59, %60
  %62 = getelementptr inbounds float, ptr %58, i64 %61
  %63 = load i64, ptr %28, align 8
  %64 = invoke noundef float @_ZN5faiss15fvec_norm_L2sqrEPKfm(ptr noundef %62, i64 noundef %63)
          to label %65 unwind label %78

65:                                               ; preds = %54
  %66 = load ptr, ptr %25, align 8
  %67 = load i64, ptr %23, align 8
  %68 = getelementptr inbounds float, ptr %66, i64 %67
  store float %64, ptr %68, align 4
  br label %69

69:                                               ; preds = %65
  br label %70

70:                                               ; preds = %69
  %71 = load i64, ptr %15, align 8
  %72 = add nsw i64 %71, 1
  store i64 %72, ptr %15, align 8
  br label %50

73:                                               ; preds = %50
  br label %74

74:                                               ; preds = %73
  %75 = load ptr, ptr %8, align 8
  %76 = load i32, ptr %75, align 4
  call void @__kmpc_for_static_fini(ptr @1, i32 %76)
  br label %77

77:                                               ; preds = %74, %7
  ret void

78:                                               ; preds = %54
  %79 = landingpad { ptr, i32 }
          catch ptr null
  %80 = extractvalue { ptr, i32 } %79, 0
  call void @__clang_call_terminate(ptr %80) #17
  unreachable
}