; Function Attrs: norecurse nounwind uwtable
define internal void @_ZN5faiss14pairwise_L2sqrEllPKflS1_Pflll.omp_outlined(ptr noalias nocapture noundef readonly %0, ptr noalias nocapture readnone %1, ptr nocapture noundef nonnull readonly align 8 dereferenceable(8) %2, ptr nocapture noundef nonnull readonly align 8 dereferenceable(8) %3, ptr nocapture noundef nonnull readonly align 8 dereferenceable(8) %4, ptr nocapture noundef nonnull readonly align 8 dereferenceable(8) %5, ptr nocapture noundef nonnull readonly align 8 dereferenceable(8) %6) #1 personality ptr @__gxx_personality_v0 {
  %8 = alloca i64, align 8
  %9 = alloca i64, align 8
  %10 = alloca i64, align 8
  %11 = alloca i32, align 4
  %12 = load i64, ptr %2, align 8
  %13 = icmp sgt i64 %12, 0
  br i1 %13, label %14, label %31

14:                                               ; preds = %7
  %15 = add nsw i64 %12, -1
  store i64 0, ptr %8, align 8
  store i64 %15, ptr %9, align 8
  store i64 1, ptr %10, align 8
  store i32 0, ptr %11, align 4
  %16 = load i32, ptr %0, align 4
  call void @__kmpc_for_static_init_8(ptr nonnull @1, i32 %16, i32 34, ptr nonnull %11, ptr nonnull %8, ptr nonnull %9, ptr nonnull %10, i64 1, i64 1)
  %17 = load i64, ptr %9, align 8
  %18 = call i64 @llvm.smin.i64(i64 %17, i64 %15)
  store i64 %18, ptr %9, align 8
  %19 = load i64, ptr %8, align 8
  %.not16 = icmp sgt i64 %19, %18
  br i1 %.not16, label %._crit_edge, label %.lr.ph

.lr.ph:                                           ; preds = %14, %26
  %.017 = phi i64 [ %29, %26 ], [ %19, %14 ]
  %20 = load ptr, ptr %4, align 8
  %21 = load i64, ptr %5, align 8
  %22 = mul nsw i64 %21, %.017
  %23 = getelementptr inbounds float, ptr %20, i64 %22
  %24 = load i64, ptr %6, align 8
  %25 = invoke noundef float @_ZN5faiss15fvec_norm_L2sqrEPKfm(ptr noundef %23, i64 noundef %24)
          to label %26 unwind label %32

26:                                               ; preds = %.lr.ph
  %27 = load ptr, ptr %3, align 8
  %28 = getelementptr inbounds float, ptr %27, i64 %.017
  store float %25, ptr %28, align 4
  %29 = add nsw i64 %.017, 1
  %30 = load i64, ptr %9, align 8
  %.not.not = icmp slt i64 %.017, %30
  br i1 %.not.not, label %.lr.ph, label %._crit_edge

._crit_edge:                                      ; preds = %26, %14
  call void @__kmpc_for_static_fini(ptr nonnull @1, i32 %16)
  br label %31

31:                                               ; preds = %._crit_edge, %7
  ret void

32:                                               ; preds = %.lr.ph
  %33 = landingpad { ptr, i32 }
          catch ptr null
  %34 = extractvalue { ptr, i32 } %33, 0
  call void @__clang_call_terminate(ptr %34) #22
  unreachable
}